; Function Attrs: mustprogress nounwind uwtable
define void @_ZNK5boost4urls14authority_view16encoded_passwordEv(ptr dead_on_unwind noalias nocapture writable writeonly sret(%"class.boost::urls::pct_string_view") align 8 %0, ptr noundef nonnull align 8 dereferenceable(184) %1) local_unnamed_addr #3 align 2 {
  %3 = getelementptr inbounds nuw i8, ptr %1, i64 8
  %4 = tail call { ptr, i64 } @_ZNK5boost4urls6detail8url_impl3getEi(ptr noundef nonnull align 8 dereferenceable(171) %3, i32 noundef 1) #28
  %5 = extractvalue { ptr, i64 } %4, 0
  %6 = extractvalue { ptr, i64 } %4, 1
  switch i64 %6, label %11 [
    i64 1, label %7
    i64 0, label %9
  ]

7:                                                ; preds = %2
  %8 = getelementptr inbounds nuw i8, ptr %5, i64 1
  br label %9

9:                                                ; preds = %7, %2
  %.sroa.0.0 = phi ptr [ %5, %2 ], [ %8, %7 ]
  store ptr %.sroa.0.0, ptr %0, align 8, !tbaa !54, !alias.scope !66
  %10 = getelementptr inbounds nuw i8, ptr %0, i64 8
  tail call void @llvm.memset.p0.i64(ptr noundef nonnull align 8 dereferenceable(16) %10, i8 0, i64 16, i1 false)
  br label %18

11:                                               ; preds = %2
  %12 = getelementptr inbounds i8, ptr %5, i64 1
  %13 = add i64 %6, -2
  %14 = getelementptr inbounds i8, ptr %1, i64 88
  %15 = load i64, ptr %14, align 8, !tbaa !38
  store ptr %12, ptr %0, align 8, !tbaa !54, !alias.scope !69
  %16 = getelementptr inbounds nuw i8, ptr %0, i64 8
  store i64 %13, ptr %16, align 8, !tbaa !59, !alias.scope !69
  %17 = getelementptr inbounds nuw i8, ptr %0, i64 16
  store i64 %15, ptr %17, align 8, !tbaa !60, !alias.scope !69
  br label %18

18:                                               ; preds = %11, %9
  ret void
}